; Function Attrs: mustprogress uwtable
define void @_ZN17ColumnEditorFrame15checkCanResolveEv(ptr nocapture noundef nonnull readonly align 8 dereferenceable(120) %0) #0 align 2 personality ptr @__gxx_personality_v0 {
  %2 = alloca %class.QByteArray, align 8
  %3 = alloca %class.QString, align 8
  %4 = getelementptr inbounds i8, ptr %0, i64 56
  %5 = load ptr, ptr %4, align 8
  %6 = getelementptr inbounds i8, ptr %5, i64 64
  %7 = load ptr, ptr %6, align 8
  %8 = getelementptr inbounds i8, ptr %7, i64 56
  %9 = load i32, ptr %8, align 8
  %10 = icmp eq i32 %9, 4
  br i1 %10, label %11, label %.critedge.thread

11:                                               ; preds = %1
  call void @_ZNK9QLineEdit4textEv(ptr dead_on_unwind nonnull writable sret(%class.QString) align 8 %3, ptr noundef nonnull align 8 dereferenceable(40) %7)
  invoke void @_ZN7QString13toUtf8_helperERKS_(ptr dead_on_unwind nonnull writable sret(%class.QByteArray) align 8 %2, ptr noundef nonnull align 8 dereferenceable(24) %3)
          to label %12 unwind label %29

12:                                               ; preds = %11
  %13 = getelementptr inbounds i8, ptr %2, i64 8
  %14 = load ptr, ptr %13, align 8
  %.not.i.i = icmp eq ptr %14, null
  %spec.select.i.i = select i1 %.not.i.i, ptr @_ZN10QByteArray6_emptyE, ptr %14
  %15 = invoke i32 @column_prefs_custom_resolve(ptr noundef nonnull %spec.select.i.i)
          to label %16 unwind label %31

16:                                               ; preds = %12
  %.not = icmp eq i32 %15, 0
  %17 = load ptr, ptr %2, align 8
  %.not.i.i.i = icmp eq ptr %17, null
  br i1 %.not.i.i.i, label %_ZN10QByteArrayD2Ev.exit, label %_ZN17QArrayDataPointerIcE5derefEv.exit.i.i

_ZN17QArrayDataPointerIcE5derefEv.exit.i.i:       ; preds = %16
  %18 = atomicrmw sub ptr %17, i32 1 seq_cst, align 4
  %.not.i.i10 = icmp eq i32 %18, 1
  br i1 %.not.i.i10, label %19, label %_ZN10QByteArrayD2Ev.exit

19:                                               ; preds = %_ZN17QArrayDataPointerIcE5derefEv.exit.i.i
  %20 = load ptr, ptr %2, align 8
  call void @_ZN10QArrayData10deallocateEPS_xx(ptr noundef %20, i64 noundef 1, i64 noundef 8) #12
  br label %_ZN10QByteArrayD2Ev.exit

_ZN10QByteArrayD2Ev.exit:                         ; preds = %16, %_ZN17QArrayDataPointerIcE5derefEv.exit.i.i, %19
  %21 = load ptr, ptr %3, align 8
  %.not.i.i.i11 = icmp eq ptr %21, null
  br i1 %.not.i.i.i11, label %.critedge, label %_ZN17QArrayDataPointerIDsE5derefEv.exit.i.i

_ZN17QArrayDataPointerIDsE5derefEv.exit.i.i:      ; preds = %_ZN10QByteArrayD2Ev.exit
  %22 = atomicrmw sub ptr %21, i32 1 seq_cst, align 4
  %.not.i.i12 = icmp eq i32 %22, 1
  br i1 %.not.i.i12, label %23, label %.critedge

23:                                               ; preds = %_ZN17QArrayDataPointerIDsE5derefEv.exit.i.i
  %24 = load ptr, ptr %3, align 8
  call void @_ZN10QArrayData10deallocateEPS_xx(ptr noundef %24, i64 noundef 2, i64 noundef 8) #12
  br i1 %.not, label %.critedge.thread, label %25

.critedge:                                        ; preds = %_ZN17QArrayDataPointerIDsE5derefEv.exit.i.i, %_ZN10QByteArrayD2Ev.exit
  br i1 %.not, label %.critedge.thread, label %25

25:                                               ; preds = %23, %.critedge
  %26 = load ptr, ptr %4, align 8
  %27 = getelementptr inbounds i8, ptr %26, i64 96
  %28 = load ptr, ptr %27, align 8
  call void @_ZN7QWidget10setEnabledEb(ptr noundef nonnull align 8 dereferenceable(40) %28, i1 noundef zeroext true)
  br label %47

29:                                               ; preds = %11
  %30 = landingpad { ptr, i32 }
          cleanup
  br label %_ZN10QByteArrayD2Ev.exit16

31:                                               ; preds = %12
  %32 = landingpad { ptr, i32 }
          cleanup
  %33 = load ptr, ptr %2, align 8
  %.not.i.i.i13 = icmp eq ptr %33, null
  br i1 %.not.i.i.i13, label %_ZN10QByteArrayD2Ev.exit16, label %_ZN17QArrayDataPointerIcE5derefEv.exit.i.i14

_ZN17QArrayDataPointerIcE5derefEv.exit.i.i14:     ; preds = %31
  %34 = atomicrmw sub ptr %33, i32 1 seq_cst, align 4
  %.not.i.i15 = icmp eq i32 %34, 1
  br i1 %.not.i.i15, label %35, label %_ZN10QByteArrayD2Ev.exit16

35:                                               ; preds = %_ZN17QArrayDataPointerIcE5derefEv.exit.i.i14
  %36 = load ptr, ptr %2, align 8
  call void @_ZN10QArrayData10deallocateEPS_xx(ptr noundef %36, i64 noundef 1, i64 noundef 8) #12
  br label %_ZN10QByteArrayD2Ev.exit16

_ZN10QByteArrayD2Ev.exit16:                       ; preds = %35, %_ZN17QArrayDataPointerIcE5derefEv.exit.i.i14, %31, %29
  %.pn = phi { ptr, i32 } [ %30, %29 ], [ %32, %31 ], [ %32, %_ZN17QArrayDataPointerIcE5derefEv.exit.i.i14 ], [ %32, %35 ]
  %37 = load ptr, ptr %3, align 8
  %.not.i.i.i17 = icmp eq ptr %37, null
  br i1 %.not.i.i.i17, label %_ZN7QStringD2Ev.exit20, label %_ZN17QArrayDataPointerIDsE5derefEv.exit.i.i18

_ZN17QArrayDataPointerIDsE5derefEv.exit.i.i18:    ; preds = %_ZN10QByteArrayD2Ev.exit16
  %38 = atomicrmw sub ptr %37, i32 1 seq_cst, align 4
  %.not.i.i19 = icmp eq i32 %38, 1
  br i1 %.not.i.i19, label %39, label %_ZN7QStringD2Ev.exit20

39:                                               ; preds = %_ZN17QArrayDataPointerIDsE5derefEv.exit.i.i18
  %40 = load ptr, ptr %3, align 8
  call void @_ZN10QArrayData10deallocateEPS_xx(ptr noundef %40, i64 noundef 2, i64 noundef 8) #12
  br label %_ZN7QStringD2Ev.exit20

_ZN7QStringD2Ev.exit20:                           ; preds = %_ZN10QByteArrayD2Ev.exit16, %_ZN17QArrayDataPointerIDsE5derefEv.exit.i.i18, %39
  resume { ptr, i32 } %.pn

.critedge.thread:                                 ; preds = %1, %23, %.critedge
  %41 = load ptr, ptr %4, align 8
  %42 = getelementptr inbounds i8, ptr %41, i64 96
  %43 = load ptr, ptr %42, align 8
  call void @_ZN7QWidget10setEnabledEb(ptr noundef nonnull align 8 dereferenceable(40) %43, i1 noundef zeroext false)
  %44 = load ptr, ptr %4, align 8
  %45 = getelementptr inbounds i8, ptr %44, i64 96
  %46 = load ptr, ptr %45, align 8
  call void @_ZN15QAbstractButton10setCheckedEb(ptr noundef nonnull align 8 dereferenceable(40) %46, i1 noundef zeroext false)
  br label %47

47:                                               ; preds = %.critedge.thread, %25
  ret void
}